target datalayout = "e-m:e-p270:32:32-p271:32:32-p272:64:64-i64:64-i128:128-f80:128-n8:16:32:64-S128"
target triple = "x86_64-pc-linux-gnu"

%"class.icu_77::UObject" = type { ptr }
%"class.icu_77::StringTrieBuilder::Node" = type { %"class.icu_77::UObject", i32, i32 }
%"class.icu_77::StringTrieBuilder::BranchNode.base" = type <{ %"class.icu_77::StringTrieBuilder::Node", i32 }>
%"class.icu_77::StringTrieBuilder::SplitBranchNode" = type { %"class.icu_77::StringTrieBuilder::BranchNode.base", i16, ptr, ptr }
%"class.icu_77::StringTrieBuilder::BranchNode" = type <{ %"class.icu_77::StringTrieBuilder::Node", i32, [4 x i8] }>

; Function Attrs: mustprogress uwtable
define noundef i32 @_ZN6icu_7717StringTrieBuilder15SplitBranchNode19markRightEdgesFirstEi(ptr noundef nonnull align 8 dereferenceable(40) %0, i32 noundef %1) unnamed_addr #2 align 2 {
  %3 = alloca ptr, align 8
  %4 = alloca i32, align 4
  store ptr %0, ptr %3, align 8, !tbaa !62
  store i32 %1, ptr %4, align 4, !tbaa !16
  %5 = load ptr, ptr %3, align 8
  %6 = getelementptr inbounds nuw %"class.icu_77::StringTrieBuilder::Node", ptr %5, i32 0, i32 2
  %7 = load i32, ptr %6, align 4, !tbaa !77
  %8 = icmp eq i32 %7, 0
  br i1 %8, label %9, label %28

9:                                                ; preds = %2
  %10 = load i32, ptr %4, align 4, !tbaa !16
  %11 = getelementptr inbounds nuw %"class.icu_77::StringTrieBuilder::BranchNode", ptr %5, i32 0, i32 1
  store i32 %10, ptr %11, align 8, !tbaa !84
  %12 = getelementptr inbounds nuw %"class.icu_77::StringTrieBuilder::SplitBranchNode", ptr %5, i32 0, i32 3
  %13 = load ptr, ptr %12, align 8, !tbaa !67
  %14 = load i32, ptr %4, align 4, !tbaa !16
  %15 = load ptr, ptr %13, align 8, !tbaa !8
  %16 = getelementptr inbounds ptr, ptr %15, i64 4
  %17 = load ptr, ptr %16, align 8
  %18 = call noundef i32 %17(ptr noundef nonnull align 8 dereferenceable(16) %13, i32 noundef %14)
  store i32 %18, ptr %4, align 4, !tbaa !16
  %19 = getelementptr inbounds nuw %"class.icu_77::StringTrieBuilder::SplitBranchNode", ptr %5, i32 0, i32 2
  %20 = load ptr, ptr %19, align 8, !tbaa !66
  %21 = load i32, ptr %4, align 4, !tbaa !16
  %22 = sub nsw i32 %21, 1
  %23 = load ptr, ptr %20, align 8, !tbaa !8
  %24 = getelementptr inbounds ptr, ptr %23, i64 4
  %25 = load ptr, ptr %24, align 8
  %26 = call noundef i32 %25(ptr noundef nonnull align 8 dereferenceable(16) %20, i32 noundef %22)
  store i32 %26, ptr %4, align 4, !tbaa !16
  %27 = getelementptr inbounds nuw %"class.icu_77::StringTrieBuilder::Node", ptr %5, i32 0, i32 2
  store i32 %26, ptr %27, align 4, !tbaa !77
  br label %28

28:                                               ; preds = %9, %2
  %29 = load i32, ptr %4, align 4, !tbaa !16
  ret i32 %29
}