; Function Attrs: mustprogress uwtable
define noundef i32 @_ZN6icu_7717StringTrieBuilder15SplitBranchNode19markRightEdgesFirstEi(ptr noundef nonnull align 8 captures(none) dereferenceable(40) %0, i32 noundef %1) unnamed_addr #2 align 2 {
  %3 = getelementptr inbounds nuw i8, ptr %0, i64 12
  %4 = load i32, ptr %3, align 4, !tbaa !21
  %5 = icmp eq i32 %4, 0
  br i1 %5, label %6, label %21

6:                                                ; preds = %2
  %7 = getelementptr inbounds nuw i8, ptr %0, i64 16
  store i32 %1, ptr %7, align 8, !tbaa !59
  %8 = getelementptr inbounds nuw i8, ptr %0, i64 32
  %9 = load ptr, ptr %8, align 8, !tbaa !50
  %10 = load ptr, ptr %9, align 8, !tbaa !3
  %11 = getelementptr inbounds nuw i8, ptr %10, i64 32
  %12 = load ptr, ptr %11, align 8
  %13 = tail call noundef i32 %12(ptr noundef nonnull align 8 dereferenceable(16) %9, i32 noundef %1)
  %14 = getelementptr inbounds nuw i8, ptr %0, i64 24
  %15 = load ptr, ptr %14, align 8, !tbaa !49
  %16 = add nsw i32 %13, -1
  %17 = load ptr, ptr %15, align 8, !tbaa !3
  %18 = getelementptr inbounds nuw i8, ptr %17, i64 32
  %19 = load ptr, ptr %18, align 8
  %20 = tail call noundef i32 %19(ptr noundef nonnull align 8 dereferenceable(16) %15, i32 noundef %16)
  store i32 %20, ptr %3, align 4, !tbaa !21
  br label %21

21:                                               ; preds = %6, %2
  %.0 = phi i32 [ %20, %6 ], [ %1, %2 ]
  ret i32 %.0
}